; Function Attrs: nounwind uwtable
define nonnull ptr @l_Lean_Omega_UpperBound_sat___boxed(ptr noundef %0, ptr noundef %1) local_unnamed_addr #1 {
  %3 = ptrtoint ptr %0 to i64
  %4 = and i64 %3, 1
  %.not.i.i = icmp eq i64 %4, 0
  br i1 %.not.i.i, label %8, label %5

5:                                                ; preds = %2
  %6 = lshr i64 %3, 1
  %7 = trunc i64 %6 to i32
  br label %lean_obj_tag.exit.i

8:                                                ; preds = %2
  %9 = getelementptr i8, ptr %0, i64 4
  %.val.i.i = load i32, ptr %9, align 4
  %10 = lshr i32 %.val.i.i, 24
  br label %lean_obj_tag.exit.i

lean_obj_tag.exit.i:                              ; preds = %8, %5
  %.0.i.i = phi i32 [ %7, %5 ], [ %10, %8 ]
  %11 = icmp eq i32 %.0.i.i, 0
  br i1 %11, label %lean_obj_tag.exit.i.l_Lean_Omega_UpperBound_sat.exit_crit_edge, label %12

lean_obj_tag.exit.i.l_Lean_Omega_UpperBound_sat.exit_crit_edge: ; preds = %lean_obj_tag.exit.i
  %.pre = ptrtoint ptr %1 to i64
  %.pre9 = and i64 %.pre, 1
  br label %l_Lean_Omega_UpperBound_sat.exit

12:                                               ; preds = %lean_obj_tag.exit.i
  %13 = getelementptr inbounds nuw i8, ptr %0, i64 8
  %14 = load ptr, ptr %13, align 8, !tbaa !11
  %15 = ptrtoint ptr %1 to i64
  %16 = and i64 %15, 1
  %.not.i.i.i = icmp eq i64 %16, 0
  br i1 %.not.i.i.i, label %.critedge.i.i.i, label %17, !prof !4

17:                                               ; preds = %12
  %18 = ptrtoint ptr %14 to i64
  %19 = and i64 %18, 1
  %.not7.i.i.i = icmp eq i64 %19, 0
  br i1 %.not7.i.i.i, label %.critedge.i.i.i, label %20, !prof !4

20:                                               ; preds = %17
  %21 = lshr i64 %15, 1
  %22 = trunc i64 %21 to i32
  %23 = lshr i64 %18, 1
  %24 = trunc i64 %23 to i32
  %25 = icmp sle i32 %22, %24
  br label %lean_int_dec_le.exit.i

.critedge.i.i.i:                                  ; preds = %17, %12
  %26 = tail call zeroext i1 @lean_int_big_le(ptr noundef %1, ptr noundef %14) #4
  br label %lean_int_dec_le.exit.i

lean_int_dec_le.exit.i:                           ; preds = %.critedge.i.i.i, %20
  %.0.i.i.i = phi i1 [ %25, %20 ], [ %26, %.critedge.i.i.i ]
  %27 = select i1 %.0.i.i.i, i64 3, i64 1
  br label %l_Lean_Omega_UpperBound_sat.exit

l_Lean_Omega_UpperBound_sat.exit:                 ; preds = %lean_obj_tag.exit.i.l_Lean_Omega_UpperBound_sat.exit_crit_edge, %lean_int_dec_le.exit.i
  %.pre-phi10 = phi i64 [ %.pre9, %lean_obj_tag.exit.i.l_Lean_Omega_UpperBound_sat.exit_crit_edge ], [ %16, %lean_int_dec_le.exit.i ]
  %.0.i = phi i64 [ 3, %lean_obj_tag.exit.i.l_Lean_Omega_UpperBound_sat.exit_crit_edge ], [ %27, %lean_int_dec_le.exit.i ]
  %.not = icmp eq i64 %.pre-phi10, 0
  br i1 %.not, label %28, label %lean_dec.exit5

28:                                               ; preds = %l_Lean_Omega_UpperBound_sat.exit
  %29 = load i32, ptr %1, align 4, !tbaa !6
  %30 = icmp sgt i32 %29, 1
  br i1 %30, label %31, label %33, !prof !5

31:                                               ; preds = %28
  %32 = add nsw i32 %29, -1
  store i32 %32, ptr %1, align 4, !tbaa !6
  br label %lean_dec.exit5

33:                                               ; preds = %28
  %.not.i = icmp eq i32 %29, 0
  br i1 %.not.i, label %lean_dec.exit5, label %34

34:                                               ; preds = %33
  tail call void @lean_dec_ref_cold(ptr noundef nonnull %1) #4
  br label %lean_dec.exit5

lean_dec.exit5:                                   ; preds = %34, %33, %31, %l_Lean_Omega_UpperBound_sat.exit
  br i1 %.not.i.i, label %35, label %lean_dec.exit

35:                                               ; preds = %lean_dec.exit5
  %36 = load i32, ptr %0, align 4, !tbaa !6
  %37 = icmp sgt i32 %36, 1
  br i1 %37, label %38, label %40, !prof !5

38:                                               ; preds = %35
  %39 = add nsw i32 %36, -1
  store i32 %39, ptr %0, align 4, !tbaa !6
  br label %lean_dec.exit

40:                                               ; preds = %35
  %.not.i6 = icmp eq i32 %36, 0
  br i1 %.not.i6, label %lean_dec.exit, label %41

41:                                               ; preds = %40
  tail call void @lean_dec_ref_cold(ptr noundef nonnull %0) #4
  br label %lean_dec.exit

lean_dec.exit:                                    ; preds = %41, %40, %38, %lean_dec.exit5
  %42 = inttoptr i64 %.0.i to ptr
  ret ptr %42
}